#include <math.h>
#include <stdio.h>
#include <stdlib.h>
#include <string.h>


int main()
{
int a[1000][1000];
int i,j,n,t,i1=0,j1=0,i2=0,j2=0;
scanf("%d",&n); 
for(i=0;i<=n-1;i++)
    {for(j=0;j<=n-1;j++)
         scanf("%d",&a[i][j]);
    }
for(i=0;i<=n-1;i++)
 {  
    {for(j=0;j<=n-1;j++)
         if(a[i][j]==0)
             {i1=i;
              j1=j;
              break;
             }
    }
    if(a[i1][j1]==0)
        break;
  }
for(i=n-1;i>=i1;i--)
 {
    {for(j=n-1;j>=0;j--)
         if(a[i][j]==0)
             {i2=i;
              j2=j;
              break;
             }
     if(a[i2][j2]==0)
         break;
  }
 }
t=(i2-i1-1)*(j2-j1-1);
printf("%d",t);
return 0;
}
